; Function Attrs: mustprogress nounwind uwtable
define dso_local void @_ZN4llvm15LegalizerHelper10bitcastSrcERNS_12MachineInstrENS_3LLTEj(ptr nocapture noundef nonnull readonly align 8 dereferenceable(48) %0, ptr nocapture noundef nonnull readonly align 8 dereferenceable(70) %1, i64 %2, i32 noundef %3) local_unnamed_addr #0 align 2 {
  %5 = alloca [1 x %"class.llvm::DstOp"], align 8
  %6 = alloca [1 x %"class.llvm::SrcOp"], align 8
  %7 = getelementptr inbounds nuw i8, ptr %1, i64 32
  %8 = load ptr, ptr %7, align 8
  %9 = zext i32 %3 to i64
  %10 = getelementptr inbounds %"class.llvm::MachineOperand", ptr %8, i64 %9
  %11 = load ptr, ptr %0, align 8
  %12 = getelementptr inbounds nuw i8, ptr %10, i64 4
  %13 = load i32, ptr %12, align 4
  call void @llvm.lifetime.start.p0(i64 16, ptr nonnull %5)
  call void @llvm.lifetime.start.p0(i64 24, ptr nonnull %6)
  store i64 %2, ptr %5, align 8
  %.sroa.28.0..sroa_idx = getelementptr inbounds i8, ptr %5, i64 8
  store i32 0, ptr %.sroa.28.0..sroa_idx, align 8
  store i32 %13, ptr %6, align 8
  %.sroa.26.0..sroa_idx = getelementptr inbounds i8, ptr %6, i64 16
  store i32 0, ptr %.sroa.26.0..sroa_idx, align 8
  %14 = load ptr, ptr %11, align 8
  %15 = getelementptr inbounds i8, ptr %14, i64 32
  %16 = load ptr, ptr %15, align 8
  %17 = call { ptr, ptr } %16(ptr noundef nonnull align 8 dereferenceable(88) %11, i32 noundef 79, ptr nonnull %5, i64 1, ptr nonnull %6, i64 1, i64 0) #18
  call void @llvm.lifetime.end.p0(i64 16, ptr nonnull %5)
  call void @llvm.lifetime.end.p0(i64 24, ptr nonnull %6)
  %18 = extractvalue { ptr, ptr } %17, 1
  %19 = getelementptr inbounds nuw i8, ptr %18, i64 32
  %20 = load ptr, ptr %19, align 8
  %21 = getelementptr inbounds i8, ptr %20, i64 4
  %22 = load i32, ptr %21, align 4
  call void @_ZN4llvm14MachineOperand6setRegENS_8RegisterE(ptr noundef nonnull align 8 dereferenceable(32) %10, i32 %22) #18
  ret void
}